	.cpu arm7tdmi
	.arch armv4t
	.fpu softvfp
	.eabi_attribute 20, 1
	.eabi_attribute 21, 1
	.eabi_attribute 23, 3
	.eabi_attribute 24, 1
	.eabi_attribute 25, 1
	.eabi_attribute 26, 1
	.eabi_attribute 30, 6
	.eabi_attribute 34, 0
	.eabi_attribute 18, 4
	.file	"quick_sort.c"
	.text
	.align	2
	.global	partition
	.syntax unified
	.arm
	.type	partition, %function
partition:
	@ Function supports interworking.
	@ args = 0, pretend = 0, frame = 32
	@ frame_needed = 1, uses_anonymous_args = 0
	@ link register save eliminated.
	str	fp, [sp, #-4]!
	add	fp, sp, #0
	sub	sp, sp, #36
	str	r0, [fp, #-24]
	str	r1, [fp, #-28]
	str	r2, [fp, #-32]
	ldr	r3, [fp, #-32]
	lsl	r3, r3, #2
	ldr	r2, [fp, #-24]
	add	r3, r2, r3
	ldr	r3, [r3]
	str	r3, [fp, #-16]
	ldr	r3, [fp, #-28]
	sub	r3, r3, #1
	str	r3, [fp, #-8]
	ldr	r3, [fp, #-28]
	str	r3, [fp, #-12]
	b	.L2
.L4:
	ldr	r3, [fp, #-12]
	lsl	r3, r3, #2
	ldr	r2, [fp, #-24]
	add	r3, r2, r3
	ldr	r3, [r3]
	ldr	r2, [fp, #-16]
	cmp	r2, r3
	ble	.L3
	ldr	r3, [fp, #-8]
	add	r3, r3, #1
	str	r3, [fp, #-8]
	ldr	r3, [fp, #-8]
	lsl	r3, r3, #2
	ldr	r2, [fp, #-24]
	add	r3, r2, r3
	ldr	r3, [r3]
	str	r3, [fp, #-20]
	ldr	r3, [fp, #-12]
	lsl	r3, r3, #2
	ldr	r2, [fp, #-24]
	add	r2, r2, r3
	ldr	r3, [fp, #-8]
	lsl	r3, r3, #2
	ldr	r1, [fp, #-24]
	add	r3, r1, r3
	ldr	r2, [r2]
	str	r2, [r3]
	ldr	r3, [fp, #-12]
	lsl	r3, r3, #2
	ldr	r2, [fp, #-24]
	add	r3, r2, r3
	ldr	r2, [fp, #-20]
	str	r2, [r3]
.L3:
	ldr	r3, [fp, #-12]
	add	r3, r3, #1
	str	r3, [fp, #-12]
.L2:
	ldr	r2, [fp, #-12]
	ldr	r3, [fp, #-32]
	cmp	r2, r3
	blt	.L4
	ldr	r3, [fp, #-8]
	add	r3, r3, #1
	lsl	r3, r3, #2
	ldr	r2, [fp, #-24]
	add	r3, r2, r3
	ldr	r3, [r3]
	str	r3, [fp, #-20]
	ldr	r3, [fp, #-32]
	lsl	r3, r3, #2
	ldr	r2, [fp, #-24]
	add	r2, r2, r3
	ldr	r3, [fp, #-8]
	add	r3, r3, #1
	lsl	r3, r3, #2
	ldr	r1, [fp, #-24]
	add	r3, r1, r3
	ldr	r2, [r2]
	str	r2, [r3]
	ldr	r3, [fp, #-32]
	lsl	r3, r3, #2
	ldr	r2, [fp, #-24]
	add	r3, r2, r3
	ldr	r2, [fp, #-20]
	str	r2, [r3]
	ldr	r3, [fp, #-8]
	add	r3, r3, #1
	mov	r0, r3
	add	sp, fp, #0
	@ sp needed
	ldr	fp, [sp], #4
	bx	lr
	.size	partition, .-partition
	.align	2
	.global	quick_sort
	.syntax unified
	.arm
	.type	quick_sort, %function
quick_sort:
	@ Function supports interworking.
	@ args = 0, pretend = 0, frame = 24
	@ frame_needed = 1, uses_anonymous_args = 0
	push	{fp, lr}
	add	fp, sp, #4
	sub	sp, sp, #24
	str	r0, [fp, #-16]
	str	r1, [fp, #-20]
	str	r2, [fp, #-24]
	ldr	r2, [fp, #-20]
	ldr	r3, [fp, #-24]
	cmp	r2, r3
	bge	.L8
	ldr	r2, [fp, #-24]
	ldr	r1, [fp, #-20]
	ldr	r0, [fp, #-16]
	bl	partition
	str	r0, [fp, #-8]
	ldr	r3, [fp, #-8]
	sub	r3, r3, #1
	mov	r2, r3
	ldr	r1, [fp, #-20]
	ldr	r0, [fp, #-16]
	bl	quick_sort
	ldr	r3, [fp, #-8]
	add	r3, r3, #1
	ldr	r2, [fp, #-24]
	mov	r1, r3
	ldr	r0, [fp, #-16]
	bl	quick_sort
.L8:
	nop
	sub	sp, fp, #4
	@ sp needed
	pop	{fp, lr}
	bx	lr
	.size	quick_sort, .-quick_sort
	.section	.rodata
	.align	2
.LC0:
	.word	323
	.word	123
	.word	-455
	.word	2
	.word	98
	.word	125
	.word	10
	.word	65
	.word	-56
	.word	0
	.text
	.align	2
	.global	main
	.syntax unified
	.arm
	.type	main, %function
main:
	@ Function supports interworking.
	@ args = 0, pretend = 0, frame = 40
	@ frame_needed = 1, uses_anonymous_args = 0
	push	{fp, lr}
	add	fp, sp, #4
	sub	sp, sp, #40
	ldr	r3, .L11
	sub	ip, fp, #44
	mov	lr, r3
	ldmia	lr!, {r0, r1, r2, r3}
	stmia	ip!, {r0, r1, r2, r3}
	ldmia	lr!, {r0, r1, r2, r3}
	stmia	ip!, {r0, r1, r2, r3}
	ldm	lr, {r0, r1}
	stm	ip, {r0, r1}
	sub	r3, fp, #44
	mov	r2, #9
	mov	r1, #0
	mov	r0, r3
	bl	quick_sort
	mov	r3, #0
	mov	r0, r3
	sub	sp, fp, #4
	@ sp needed
	pop	{fp, lr}
	bx	lr
.L12:
	.align	2
.L11:
	.word	.LC0
	.size	main, .-main
	.ident	"GCC: (Arm GNU Toolchain 14.2.Rel1 (Build arm-14.52)) 14.2.1 20241119"
